(i__main__
Config
p0
(dp1
S'use_vertical_flips'
p2
I00
sS'verbose'
p3
I01
sS'anchor_box_scales'
p4
(lp5
I24
aI34
aI54
asS'rot_90'
p6
I00
sS'use_horizontal_flips'
p7
I00
sS'network'
p8
S'mobilenet'
p9
sb.